(dp0
S'sam'
p1
(lp2
S'sammy'
p3
aS'8883'
p4
asS'jim'
p5
(lp6
S'jimmy'
p7
aS'8888'
p8
asS'tim'
p9
(lp10
S'timmy'
p11
aS'2222'
p12
asS'JOE'
p13
(lp14
S'JOEY'
p15
aS'6789'
p16
asS'kim'
p17
(lp18
S'kimmy'
p19
aS'12345'
p20
as.